target datalayout = "e-m:e-p270:32:32-p271:32:32-p272:64:64-i64:64-i128:128-f80:128-n8:16:32:64-S128"
target triple = "x86_64-unknown-linux-gnu"

%struct.of_dpa = type { ptr, ptr, ptr, i32, i32 }

; Function Attrs: nounwind sspstrong uwtable
define internal void @of_dpa_uninit(ptr noundef %world) #0 {
entry:
  %world.addr = alloca ptr, align 8
  %of_dpa = alloca ptr, align 8
  store ptr %world, ptr %world.addr, align 8
  %0 = load ptr, ptr %world.addr, align 8
  %call = call ptr @world_private(ptr noundef %0)
  store ptr %call, ptr %of_dpa, align 8
  %1 = load ptr, ptr %of_dpa, align 8
  %group_tbl = getelementptr inbounds %struct.of_dpa, ptr %1, i32 0, i32 2
  %2 = load ptr, ptr %group_tbl, align 8
  call void @g_hash_table_destroy(ptr noundef %2)
  %3 = load ptr, ptr %of_dpa, align 8
  %flow_tbl = getelementptr inbounds %struct.of_dpa, ptr %3, i32 0, i32 1
  %4 = load ptr, ptr %flow_tbl, align 8
  call void @g_hash_table_destroy(ptr noundef %4)
  ret void
}