; Function Attrs: nounwind sspstrong uwtable
define internal void @of_dpa_uninit(ptr noundef %world) #0 {
entry:
  %call = tail call ptr @world_private(ptr noundef %world) #18
  %group_tbl = getelementptr inbounds nuw i8, ptr %call, i64 16
  %0 = load ptr, ptr %group_tbl, align 8
  tail call void @g_hash_table_destroy(ptr noundef %0) #18
  %flow_tbl = getelementptr inbounds nuw i8, ptr %call, i64 8
  %1 = load ptr, ptr %flow_tbl, align 8
  tail call void @g_hash_table_destroy(ptr noundef %1) #18
  ret void
}